target datalayout = "e-m:e-p270:32:32-p271:32:32-p272:64:64-i64:64-i128:128-f80:128-n8:16:32:64-S128"
target triple = "x86_64-pc-linux-gnu"

%struct._N_VectorContent_Serial = type { i64, i32, ptr }
%struct._generic_N_Vector = type { ptr, ptr }

; Function Attrs: nounwind uwtable
define i32 @N_VConstrMask_Serial(ptr noundef %0, ptr noundef %1, ptr noundef %2) #0 {
  %4 = alloca ptr, align 8
  %5 = alloca ptr, align 8
  %6 = alloca ptr, align 8
  %7 = alloca i64, align 8
  %8 = alloca i64, align 8
  %9 = alloca i32, align 4
  %10 = alloca ptr, align 8
  %11 = alloca ptr, align 8
  %12 = alloca ptr, align 8
  store ptr %0, ptr %4, align 8, !tbaa !7
  store ptr %1, ptr %5, align 8, !tbaa !7
  store ptr %2, ptr %6, align 8, !tbaa !7
  call void @llvm.lifetime.start.p0(i64 8, ptr %7) #6
  call void @llvm.lifetime.start.p0(i64 8, ptr %8) #6
  call void @llvm.lifetime.start.p0(i64 4, ptr %9) #6
  call void @llvm.lifetime.start.p0(i64 8, ptr %10) #6
  call void @llvm.lifetime.start.p0(i64 8, ptr %11) #6
  call void @llvm.lifetime.start.p0(i64 8, ptr %12) #6
  store ptr null, ptr %12, align 8, !tbaa !49
  store ptr null, ptr %11, align 8, !tbaa !49
  store ptr null, ptr %10, align 8, !tbaa !49
  %13 = load ptr, ptr %5, align 8, !tbaa !7
  %14 = getelementptr inbounds nuw %struct._generic_N_Vector, ptr %13, i32 0, i32 0
  %15 = load ptr, ptr %14, align 8, !tbaa !46
  %16 = getelementptr inbounds nuw %struct._N_VectorContent_Serial, ptr %15, i32 0, i32 0
  %17 = load i64, ptr %16, align 8, !tbaa !40
  store i64 %17, ptr %8, align 8, !tbaa !3
  %18 = load ptr, ptr %5, align 8, !tbaa !7
  %19 = getelementptr inbounds nuw %struct._generic_N_Vector, ptr %18, i32 0, i32 0
  %20 = load ptr, ptr %19, align 8, !tbaa !46
  %21 = getelementptr inbounds nuw %struct._N_VectorContent_Serial, ptr %20, i32 0, i32 2
  %22 = load ptr, ptr %21, align 8, !tbaa !45
  store ptr %22, ptr %11, align 8, !tbaa !49
  %23 = load ptr, ptr %4, align 8, !tbaa !7
  %24 = getelementptr inbounds nuw %struct._generic_N_Vector, ptr %23, i32 0, i32 0
  %25 = load ptr, ptr %24, align 8, !tbaa !46
  %26 = getelementptr inbounds nuw %struct._N_VectorContent_Serial, ptr %25, i32 0, i32 2
  %27 = load ptr, ptr %26, align 8, !tbaa !45
  store ptr %27, ptr %10, align 8, !tbaa !49
  %28 = load ptr, ptr %6, align 8, !tbaa !7
  %29 = getelementptr inbounds nuw %struct._generic_N_Vector, ptr %28, i32 0, i32 0
  %30 = load ptr, ptr %29, align 8, !tbaa !46
  %31 = getelementptr inbounds nuw %struct._N_VectorContent_Serial, ptr %30, i32 0, i32 2
  %32 = load ptr, ptr %31, align 8, !tbaa !45
  store ptr %32, ptr %12, align 8, !tbaa !49
  store i32 1, ptr %9, align 4, !tbaa !54
  store i64 0, ptr %7, align 8, !tbaa !3
  br label %33

33:                                               ; preds = %104, %3
  %34 = load i64, ptr %7, align 8, !tbaa !3
  %35 = load i64, ptr %8, align 8, !tbaa !3
  %36 = icmp slt i64 %34, %35
  br i1 %36, label %37, label %107

37:                                               ; preds = %33
  %38 = load ptr, ptr %12, align 8, !tbaa !49
  %39 = load i64, ptr %7, align 8, !tbaa !3
  %40 = getelementptr inbounds double, ptr %38, i64 %39
  store double 0.000000e+00, ptr %40, align 8, !tbaa !52
  %41 = load ptr, ptr %10, align 8, !tbaa !49
  %42 = load i64, ptr %7, align 8, !tbaa !3
  %43 = getelementptr inbounds double, ptr %41, i64 %42
  %44 = load double, ptr %43, align 8, !tbaa !52
  %45 = fcmp oeq double %44, 0.000000e+00
  br i1 %45, label %46, label %47

46:                                               ; preds = %37
  br label %104

47:                                               ; preds = %37
  %48 = load ptr, ptr %10, align 8, !tbaa !49
  %49 = load i64, ptr %7, align 8, !tbaa !3
  %50 = getelementptr inbounds double, ptr %48, i64 %49
  %51 = load double, ptr %50, align 8, !tbaa !52
  %52 = fcmp ogt double %51, 1.500000e+00
  br i1 %52, label %59, label %53

53:                                               ; preds = %47
  %54 = load ptr, ptr %10, align 8, !tbaa !49
  %55 = load i64, ptr %7, align 8, !tbaa !3
  %56 = getelementptr inbounds double, ptr %54, i64 %55
  %57 = load double, ptr %56, align 8, !tbaa !52
  %58 = fcmp olt double %57, -1.500000e+00
  br i1 %58, label %59, label %75

59:                                               ; preds = %53, %47
  %60 = load ptr, ptr %11, align 8, !tbaa !49
  %61 = load i64, ptr %7, align 8, !tbaa !3
  %62 = getelementptr inbounds double, ptr %60, i64 %61
  %63 = load double, ptr %62, align 8, !tbaa !52
  %64 = load ptr, ptr %10, align 8, !tbaa !49
  %65 = load i64, ptr %7, align 8, !tbaa !3
  %66 = getelementptr inbounds double, ptr %64, i64 %65
  %67 = load double, ptr %66, align 8, !tbaa !52
  %68 = fmul double %63, %67
  %69 = fcmp ole double %68, 0.000000e+00
  br i1 %69, label %70, label %74

70:                                               ; preds = %59
  store i32 0, ptr %9, align 4, !tbaa !54
  %71 = load ptr, ptr %12, align 8, !tbaa !49
  %72 = load i64, ptr %7, align 8, !tbaa !3
  %73 = getelementptr inbounds double, ptr %71, i64 %72
  store double 1.000000e+00, ptr %73, align 8, !tbaa !52
  br label %74

74:                                               ; preds = %70, %59
  br label %104

75:                                               ; preds = %53
  %76 = load ptr, ptr %10, align 8, !tbaa !49
  %77 = load i64, ptr %7, align 8, !tbaa !3
  %78 = getelementptr inbounds double, ptr %76, i64 %77
  %79 = load double, ptr %78, align 8, !tbaa !52
  %80 = fcmp ogt double %79, 5.000000e-01
  br i1 %80, label %87, label %81

81:                                               ; preds = %75
  %82 = load ptr, ptr %10, align 8, !tbaa !49
  %83 = load i64, ptr %7, align 8, !tbaa !3
  %84 = getelementptr inbounds double, ptr %82, i64 %83
  %85 = load double, ptr %84, align 8, !tbaa !52
  %86 = fcmp olt double %85, -5.000000e-01
  br i1 %86, label %87, label %103

87:                                               ; preds = %81, %75
  %88 = load ptr, ptr %11, align 8, !tbaa !49
  %89 = load i64, ptr %7, align 8, !tbaa !3
  %90 = getelementptr inbounds double, ptr %88, i64 %89
  %91 = load double, ptr %90, align 8, !tbaa !52
  %92 = load ptr, ptr %10, align 8, !tbaa !49
  %93 = load i64, ptr %7, align 8, !tbaa !3
  %94 = getelementptr inbounds double, ptr %92, i64 %93
  %95 = load double, ptr %94, align 8, !tbaa !52
  %96 = fmul double %91, %95
  %97 = fcmp olt double %96, 0.000000e+00
  br i1 %97, label %98, label %102

98:                                               ; preds = %87
  store i32 0, ptr %9, align 4, !tbaa !54
  %99 = load ptr, ptr %12, align 8, !tbaa !49
  %100 = load i64, ptr %7, align 8, !tbaa !3
  %101 = getelementptr inbounds double, ptr %99, i64 %100
  store double 1.000000e+00, ptr %101, align 8, !tbaa !52
  br label %102

102:                                              ; preds = %98, %87
  br label %103

103:                                              ; preds = %102, %81
  br label %104

104:                                              ; preds = %103, %74, %46
  %105 = load i64, ptr %7, align 8, !tbaa !3
  %106 = add nsw i64 %105, 1
  store i64 %106, ptr %7, align 8, !tbaa !3
  br label %33, !llvm.loop !73

107:                                              ; preds = %33
  %108 = load i32, ptr %9, align 4, !tbaa !54
  call void @llvm.lifetime.end.p0(i64 8, ptr %12) #6
  call void @llvm.lifetime.end.p0(i64 8, ptr %11) #6
  call void @llvm.lifetime.end.p0(i64 8, ptr %10) #6
  call void @llvm.lifetime.end.p0(i64 4, ptr %9) #6
  call void @llvm.lifetime.end.p0(i64 8, ptr %8) #6
  call void @llvm.lifetime.end.p0(i64 8, ptr %7) #6
  ret i32 %108
}