; Function Attrs: nofree norecurse nosync nounwind memory(readwrite, inaccessiblemem: none) uwtable
define range(i32 0, 2) i32 @N_VConstrMask_Serial(ptr noundef readonly captures(none) %0, ptr noundef readonly captures(none) %1, ptr noundef readonly captures(none) %2) #8 {
  %4 = load ptr, ptr %1, align 8, !tbaa !39
  %5 = load i64, ptr %4, align 8, !tbaa !32
  %6 = getelementptr inbounds nuw i8, ptr %4, i64 16
  %7 = load ptr, ptr %6, align 8, !tbaa !38
  %8 = load ptr, ptr %0, align 8, !tbaa !39
  %9 = getelementptr inbounds nuw i8, ptr %8, i64 16
  %10 = load ptr, ptr %9, align 8, !tbaa !38
  %11 = load ptr, ptr %2, align 8, !tbaa !39
  %12 = getelementptr inbounds nuw i8, ptr %11, i64 16
  %13 = load ptr, ptr %12, align 8, !tbaa !38
  %14 = icmp sgt i64 %5, 0
  br i1 %14, label %.lr.ph, label %._crit_edge

.lr.ph:                                           ; preds = %3, %32
  %.035 = phi i32 [ %.1, %32 ], [ 1, %3 ]
  %.03134 = phi i64 [ %33, %32 ], [ 0, %3 ]
  %15 = getelementptr inbounds nuw double, ptr %13, i64 %.03134
  store double 0.000000e+00, ptr %15, align 8, !tbaa !44
  %16 = getelementptr inbounds nuw double, ptr %10, i64 %.03134
  %17 = load double, ptr %16, align 8, !tbaa !44
  %18 = fcmp oeq double %17, 0.000000e+00
  br i1 %18, label %32, label %19

19:                                               ; preds = %.lr.ph
  %20 = tail call double @llvm.fabs.f64(double %17)
  %or.cond = fcmp ogt double %20, 1.500000e+00
  br i1 %or.cond, label %21, label %26

21:                                               ; preds = %19
  %22 = getelementptr inbounds nuw double, ptr %7, i64 %.03134
  %23 = load double, ptr %22, align 8, !tbaa !44
  %24 = fmul double %17, %23
  %25 = fcmp ugt double %24, 0.000000e+00
  br i1 %25, label %32, label %.sink.split

26:                                               ; preds = %19
  %or.cond33 = fcmp ogt double %20, 5.000000e-01
  br i1 %or.cond33, label %27, label %32

27:                                               ; preds = %26
  %28 = getelementptr inbounds nuw double, ptr %7, i64 %.03134
  %29 = load double, ptr %28, align 8, !tbaa !44
  %30 = fmul double %17, %29
  %31 = fcmp olt double %30, 0.000000e+00
  br i1 %31, label %.sink.split, label %32

.sink.split:                                      ; preds = %27, %21
  store double 1.000000e+00, ptr %15, align 8, !tbaa !44
  br label %32

32:                                               ; preds = %.sink.split, %26, %27, %21, %.lr.ph
  %.1 = phi i32 [ %.035, %.lr.ph ], [ %.035, %21 ], [ %.035, %27 ], [ %.035, %26 ], [ 0, %.sink.split ]
  %33 = add nuw nsw i64 %.03134, 1
  %exitcond.not = icmp eq i64 %33, %5
  br i1 %exitcond.not, label %._crit_edge, label %.lr.ph, !llvm.loop !76

._crit_edge:                                      ; preds = %32, %3
  %.0.lcssa = phi i32 [ 1, %3 ], [ %.1, %32 ]
  ret i32 %.0.lcssa
}